; Function Attrs: nounwind uwtable
define internal fastcc void @SetInitialProfiles(ptr noundef %0, double noundef %1, double noundef %2) unnamed_addr #0 {
  %4 = tail call ptr @N_VGetArrayPointer(ptr noundef %0) #10
  br label %5

5:                                                ; preds = %3, %34
  %indvars.iv32 = phi i64 [ 0, %3 ], [ %indvars.iv.next33, %34 ]
  %6 = trunc nuw nsw i64 %indvars.iv32 to i32
  %7 = uitofp nneg i32 %6 to double
  %8 = tail call double @llvm.fmuladd.f64(double %7, double %2, double 3.000000e+01)
  %9 = fadd double %8, -4.000000e+01
  %10 = fmul double %9, 1.000000e-01
  %11 = fmul double %10, %10
  %12 = fsub double 1.000000e+00, %11
  %13 = fmul double %11, %11
  %14 = tail call double @llvm.fmuladd.f64(double %13, double 5.000000e-01, double %12)
  %15 = mul nuw nsw i64 %indvars.iv32, 20
  %16 = or disjoint i64 %15, 1
  %invariant.gep = getelementptr inbounds nuw double, ptr %4, i64 %15
  %17 = getelementptr inbounds nuw double, ptr %4, i64 %16
  br label %18

18:                                               ; preds = %5, %18
  %indvars.iv = phi i64 [ 0, %5 ], [ %indvars.iv.next, %18 ]
  %19 = trunc nuw nsw i64 %indvars.iv to i32
  %20 = uitofp nneg i32 %19 to double
  %21 = tail call double @llvm.fmuladd.f64(double %20, double %1, double 0.000000e+00)
  %22 = fadd double %21, -1.000000e+01
  %23 = fmul double %22, 1.000000e-01
  %24 = fmul double %23, %23
  %25 = fsub double 1.000000e+00, %24
  %26 = fmul double %24, %24
  %27 = tail call double @llvm.fmuladd.f64(double %26, double 5.000000e-01, double %25)
  %28 = fmul double %27, 1.000000e+06
  %29 = fmul double %14, %28
  %30 = shl nuw nsw i64 %indvars.iv, 1
  %gep = getelementptr inbounds nuw double, ptr %invariant.gep, i64 %30
  store double %29, ptr %gep, align 8, !tbaa !28
  %31 = fmul double %27, 1.000000e+12
  %32 = fmul double %14, %31
  %33 = getelementptr inbounds nuw double, ptr %17, i64 %30
  store double %32, ptr %33, align 8, !tbaa !28
  %indvars.iv.next = add nuw nsw i64 %indvars.iv, 1
  %exitcond.not = icmp eq i64 %indvars.iv.next, 10
  br i1 %exitcond.not, label %34, label %18

34:                                               ; preds = %18
  %indvars.iv.next33 = add nuw nsw i64 %indvars.iv32, 1
  %exitcond35.not = icmp eq i64 %indvars.iv.next33, 10
  br i1 %exitcond35.not, label %35, label %5

35:                                               ; preds = %34
  ret void
}